target datalayout = "e-m:e-p270:32:32-p271:32:32-p272:64:64-i64:64-i128:128-f80:128-n8:16:32:64-S128"
target triple = "x86_64-pc-linux-gnu"

%struct.sysinfo = type { i64, [3 x i64], i64, i64, i64, i64, i64, i64, i16, i16, i64, i64, i32, [0 x i8] }

@.str.18 = private unnamed_addr constant [14 x i8] c"MemAvailable:\00", align 1
@.str.27 = private unnamed_addr constant [14 x i8] c"/proc/meminfo\00", align 1
@.str.28 = private unnamed_addr constant [7 x i8] c"%lu kB\00", align 1

; Function Attrs: nounwind uwtable
define internal i64 @uv__read_proc_meminfo(ptr noundef %0) #0 {
  %2 = alloca i64, align 8
  %3 = alloca ptr, align 8
  %4 = alloca i64, align 8
  %5 = alloca ptr, align 8
  %6 = alloca [4096 x i8], align 16
  %7 = alloca i32, align 4
  store ptr %0, ptr %3, align 8
  call void @llvm.lifetime.start.p0(i64 8, ptr %4) #12
  call void @llvm.lifetime.start.p0(i64 8, ptr %5) #12
  call void @llvm.lifetime.start.p0(i64 4096, ptr %6) #12
  %8 = getelementptr inbounds [4096 x i8], ptr %6, i64 0, i64 0
  %9 = call i32 @uv__slurp(ptr noundef @.str.27, ptr noundef %8, i64 noundef 4096)
  %10 = icmp ne i32 %9, 0
  br i1 %10, label %11, label %12

11:                                               ; preds = %1
  store i64 0, ptr %2, align 8
  store i32 1, ptr %7, align 4
  br label %28

12:                                               ; preds = %1
  %13 = getelementptr inbounds [4096 x i8], ptr %6, i64 0, i64 0
  %14 = load ptr, ptr %3, align 8
  %15 = call ptr @strstr(ptr noundef %13, ptr noundef %14) #13
  store ptr %15, ptr %5, align 8
  %16 = load ptr, ptr %5, align 8
  %17 = icmp eq ptr %16, null
  br i1 %17, label %18, label %19

18:                                               ; preds = %12
  store i64 0, ptr %2, align 8
  store i32 1, ptr %7, align 4
  br label %28

19:                                               ; preds = %12
  %20 = load ptr, ptr %3, align 8
  %21 = call i64 @strlen(ptr noundef %20) #13
  %22 = load ptr, ptr %5, align 8
  %23 = getelementptr inbounds nuw i8, ptr %22, i64 %21
  store ptr %23, ptr %5, align 8
  store i64 0, ptr %4, align 8
  %24 = load ptr, ptr %5, align 8
  %25 = call i32 (ptr, ptr, ...) @sscanf(ptr noundef %24, ptr noundef @.str.28, ptr noundef %4) #12
  %26 = load i64, ptr %4, align 8
  %27 = mul i64 %26, 1024
  store i64 %27, ptr %2, align 8
  store i32 1, ptr %7, align 4
  br label %28

28:                                               ; preds = %19, %18, %11
  call void @llvm.lifetime.end.p0(i64 4096, ptr %6) #12
  call void @llvm.lifetime.end.p0(i64 8, ptr %5) #12
  call void @llvm.lifetime.end.p0(i64 8, ptr %4) #12
  %29 = load i64, ptr %2, align 8
  ret i64 %29
}

; Function Attrs: nounwind uwtable
define dso_local i64 @uv_get_free_memory() #0 {
  %1 = alloca i64, align 8
  %2 = alloca %struct.sysinfo, align 8
  %3 = alloca i64, align 8
  %4 = alloca i32, align 4
  call void @llvm.lifetime.start.p0(i64 112, ptr %2) #12
  call void @llvm.lifetime.start.p0(i64 8, ptr %3) #12
  %5 = call i64 @uv__read_proc_meminfo(ptr noundef @.str.18)
  store i64 %5, ptr %3, align 8
  %6 = load i64, ptr %3, align 8
  %7 = icmp ne i64 %6, 0
  br i1 %7, label %8, label %10

8:                                                ; preds = %0
  %9 = load i64, ptr %3, align 8
  store i64 %9, ptr %1, align 8
  store i32 1, ptr %4, align 4
  br label %21

10:                                               ; preds = %0
  %11 = call i32 @sysinfo(ptr noundef %2) #12
  %12 = icmp eq i32 0, %11
  br i1 %12, label %13, label %20

13:                                               ; preds = %10
  %14 = getelementptr inbounds nuw %struct.sysinfo, ptr %2, i32 0, i32 3
  %15 = load i64, ptr %14, align 8
  %16 = getelementptr inbounds nuw %struct.sysinfo, ptr %2, i32 0, i32 12
  %17 = load i32, ptr %16, align 8
  %18 = zext i32 %17 to i64
  %19 = mul i64 %15, %18
  store i64 %19, ptr %1, align 8
  store i32 1, ptr %4, align 4
  br label %21

20:                                               ; preds = %10
  store i64 0, ptr %1, align 8
  store i32 1, ptr %4, align 4
  br label %21

21:                                               ; preds = %20, %13, %8
  call void @llvm.lifetime.end.p0(i64 8, ptr %3) #12
  call void @llvm.lifetime.end.p0(i64 112, ptr %2) #12
  %22 = load i64, ptr %1, align 8
  ret i64 %22
}