; Function Attrs: nounwind uwtable
define dso_local i64 @uv_get_free_memory() local_unnamed_addr #0 {
  %1 = alloca i64, align 8
  %2 = alloca [4096 x i8], align 16
  %3 = alloca %struct.sysinfo, align 8
  call void @llvm.lifetime.start.p0(i64 112, ptr nonnull %3) #17
  call void @llvm.lifetime.start.p0(i64 8, ptr nonnull %1) #17
  call void @llvm.lifetime.start.p0(i64 4096, ptr nonnull %2) #17
  %4 = call i32 @uv__slurp(ptr noundef nonnull @.str.27, ptr noundef nonnull %2, i64 noundef 4096) #17
  %.not.i = icmp eq i32 %4, 0
  br i1 %.not.i, label %5, label %uv__read_proc_meminfo.exit.thread

5:                                                ; preds = %0
  %6 = call ptr @strstr(ptr noundef nonnull dereferenceable(1) %2, ptr noundef nonnull dereferenceable(1) @.str.18) #18
  %7 = icmp eq ptr %6, null
  br i1 %7, label %uv__read_proc_meminfo.exit.thread, label %uv__read_proc_meminfo.exit

uv__read_proc_meminfo.exit.thread:                ; preds = %0, %5
  call void @llvm.lifetime.end.p0(i64 4096, ptr nonnull %2) #17
  call void @llvm.lifetime.end.p0(i64 8, ptr nonnull %1) #17
  br label %12

uv__read_proc_meminfo.exit:                       ; preds = %5
  %8 = getelementptr inbounds nuw i8, ptr %6, i64 13
  store i64 0, ptr %1, align 8
  %9 = call i32 (ptr, ptr, ...) @sscanf(ptr noundef nonnull %8, ptr noundef nonnull @.str.28, ptr noundef nonnull %1) #17
  %10 = load i64, ptr %1, align 8
  %11 = shl i64 %10, 10
  call void @llvm.lifetime.end.p0(i64 4096, ptr nonnull %2) #17
  call void @llvm.lifetime.end.p0(i64 8, ptr nonnull %1) #17
  %.not = icmp eq i64 %11, 0
  br i1 %.not, label %12, label %22

12:                                               ; preds = %uv__read_proc_meminfo.exit.thread, %uv__read_proc_meminfo.exit
  %13 = call i32 @sysinfo(ptr noundef nonnull %3) #17
  %14 = icmp eq i32 %13, 0
  br i1 %14, label %15, label %22

15:                                               ; preds = %12
  %16 = getelementptr inbounds nuw i8, ptr %3, i64 40
  %17 = load i64, ptr %16, align 8
  %18 = getelementptr inbounds nuw i8, ptr %3, i64 104
  %19 = load i32, ptr %18, align 8
  %20 = zext i32 %19 to i64
  %21 = mul i64 %17, %20
  br label %22

22:                                               ; preds = %12, %uv__read_proc_meminfo.exit, %15
  %.0 = phi i64 [ %21, %15 ], [ %11, %uv__read_proc_meminfo.exit ], [ 0, %12 ]
  call void @llvm.lifetime.end.p0(i64 112, ptr nonnull %3) #17
  ret i64 %.0
}